; Function Attrs: null_pointer_is_valid sspstrong uwtable
define internal range(i32 -268435456, 268435456) i32 @dissect_PDUSessionResourceReleaseResponseTransfer_PDU(ptr noundef %0, ptr noundef %1, ptr noundef %2, ptr readnone captures(none) %3) #0 {
  %5 = alloca %struct._asn1_ctx_t, align 8
  call void @llvm.lifetime.start.p0(i64 208, ptr nonnull %5) #12
  call void @asn1_ctx_init(ptr noundef nonnull %5, i32 noundef 1, i1 noundef zeroext true, ptr noundef %1)
  %6 = load i32, ptr @hf_ngap_PDUSessionResourceReleaseResponseTransfer_PDU, align 4
  %7 = getelementptr inbounds nuw i8, ptr %5, i64 16
  %8 = load ptr, ptr %7, align 8
  %9 = getelementptr inbounds nuw i8, ptr %8, i64 408
  %10 = load ptr, ptr %9, align 8
  %11 = load i32, ptr @proto_json, align 4
  %12 = call ptr @p_get_proto_data(ptr noundef %10, ptr noundef %8, i32 noundef %11, i32 noundef 0)
  %.not.i = icmp eq ptr %12, null
  br i1 %.not.i, label %17, label %13

13:                                               ; preds = %4
  %14 = load ptr, ptr %7, align 8
  %15 = getelementptr inbounds nuw i8, ptr %14, i64 8
  %16 = load ptr, ptr %15, align 8
  call void @col_append_sep_str(ptr noundef %16, i32 noundef 25, ptr noundef null, ptr noundef nonnull @.str.680)
  br label %17

17:                                               ; preds = %13, %4
  %18 = load ptr, ptr %7, align 8
  %19 = getelementptr inbounds nuw i8, ptr %18, i64 408
  %20 = load ptr, ptr %19, align 8
  %21 = load i32, ptr @proto_ngap, align 4
  %22 = call ptr @p_get_proto_data(ptr noundef %20, ptr noundef %18, i32 noundef %21, i32 noundef 0)
  %.not.i.i = icmp eq ptr %22, null
  br i1 %.not.i.i, label %23, label %ngap_get_private_data.exit.i

23:                                               ; preds = %17
  %24 = load ptr, ptr %19, align 8
  %25 = call noalias dereferenceable_or_null(72) ptr @wmem_alloc0(ptr noundef %24, i64 noundef 72) #13
  %26 = getelementptr inbounds nuw i8, ptr %25, i64 24
  store i32 -1, ptr %26, align 8
  %27 = getelementptr inbounds nuw i8, ptr %25, i64 56
  store i8 -1, ptr %27, align 8
  %28 = load ptr, ptr %19, align 8
  %29 = load i32, ptr @proto_ngap, align 4
  call void @p_add_proto_data(ptr noundef %28, ptr noundef %18, i32 noundef %29, i32 noundef 0, ptr noundef %25)
  br label %ngap_get_private_data.exit.i

ngap_get_private_data.exit.i:                     ; preds = %23, %17
  %.0.i.i = phi ptr [ %22, %17 ], [ %25, %23 ]
  %30 = getelementptr inbounds nuw i8, ptr %.0.i.i, i64 56
  store i8 1, ptr %30, align 8
  %31 = load i32, ptr @ett_ngap_PDUSessionResourceReleaseResponseTransfer, align 4
  %32 = call i32 @dissect_per_sequence(ptr noundef %0, i32 noundef 0, ptr noundef nonnull %5, ptr noundef %2, i32 noundef %6, i32 noundef %31, ptr noundef nonnull @PDUSessionResourceReleaseResponseTransfer_sequence)
  %33 = load ptr, ptr %7, align 8
  %34 = getelementptr inbounds nuw i8, ptr %33, i64 408
  %35 = load ptr, ptr %34, align 8
  %36 = load i32, ptr @proto_ngap, align 4
  %37 = call ptr @p_get_proto_data(ptr noundef %35, ptr noundef %33, i32 noundef %36, i32 noundef 0)
  %.not.i11.i = icmp eq ptr %37, null
  br i1 %.not.i11.i, label %38, label %dissect_ngap_PDUSessionResourceReleaseResponseTransfer.exit

38:                                               ; preds = %ngap_get_private_data.exit.i
  %39 = load ptr, ptr %34, align 8
  %40 = call noalias dereferenceable_or_null(72) ptr @wmem_alloc0(ptr noundef %39, i64 noundef 72) #13
  %41 = getelementptr inbounds nuw i8, ptr %40, i64 24
  store i32 -1, ptr %41, align 8
  %42 = getelementptr inbounds nuw i8, ptr %40, i64 56
  store i8 -1, ptr %42, align 8
  %43 = load ptr, ptr %34, align 8
  %44 = load i32, ptr @proto_ngap, align 4
  call void @p_add_proto_data(ptr noundef %43, ptr noundef %33, i32 noundef %44, i32 noundef 0, ptr noundef %40)
  br label %dissect_ngap_PDUSessionResourceReleaseResponseTransfer.exit

dissect_ngap_PDUSessionResourceReleaseResponseTransfer.exit: ; preds = %ngap_get_private_data.exit.i, %38
  %.0.i12.i = phi ptr [ %37, %ngap_get_private_data.exit.i ], [ %40, %38 ]
  %45 = getelementptr inbounds nuw i8, ptr %.0.i12.i, i64 56
  store i8 -1, ptr %45, align 8
  %46 = add i32 %32, 7
  %47 = ashr i32 %46, 3
  call void @llvm.lifetime.end.p0(i64 208, ptr nonnull %5) #12
  ret i32 %47
}